; ModuleID = '60/1647.c'
source_filename = "60/1647.c"
target datalayout = "e-m:e-p270:32:32-p271:32:32-p272:64:64-i64:64-f80:128-n8:16:32:64-S128"
target triple = "x86_64-pc-linux-gnu"

@.str = private unnamed_addr constant [3 x i8] c"%d\00", align 1
@.str.1 = private unnamed_addr constant [6 x i8] c"empty\00", align 1
@.str.2 = private unnamed_addr constant [7 x i8] c"%d %d\0A\00", align 1

; Function Attrs: noinline nounwind uwtable
define dso_local i32 @main(i32 %0, i8** %1) #0 {
  %3 = alloca i32, align 4
  %4 = alloca i32, align 4
  %5 = alloca i8**, align 8
  %6 = alloca i32, align 4
  %7 = alloca [20000 x i32], align 16
  %8 = alloca i32, align 4
  %9 = alloca i32, align 4
  store i32 0, i32* %3, align 4
  store i32 %0, i32* %4, align 4
  store i8** %1, i8*** %5, align 8
  %10 = call i32 (i8*, ...) @__isoc99_scanf(i8* getelementptr inbounds ([3 x i8], [3 x i8]* @.str, i64 0, i64 0), i32* %6)
  store i32 0, i32* %9, align 4
  br label %11

11:                                               ; preds = %19, %2
  %12 = load i32, i32* %9, align 4
  %13 = load i32, i32* %6, align 4
  %14 = icmp sle i32 %12, %13
  br i1 %14, label %15, label %22

15:                                               ; preds = %11
  %16 = load i32, i32* %9, align 4
  %17 = sext i32 %16 to i64
  %18 = getelementptr inbounds [20000 x i32], [20000 x i32]* %7, i64 0, i64 %17
  store i32 0, i32* %18, align 4
  br label %19

19:                                               ; preds = %15
  %20 = load i32, i32* %9, align 4
  %21 = add nsw i32 %20, 1
  store i32 %21, i32* %9, align 4
  br label %11

22:                                               ; preds = %11
  %23 = load i32, i32* %6, align 4
  %24 = icmp slt i32 %23, 5
  br i1 %24, label %25, label %27

25:                                               ; preds = %22
  %26 = call i32 (i8*, ...) @printf(i8* getelementptr inbounds ([6 x i8], [6 x i8]* @.str.1, i64 0, i64 0))
  br label %97

27:                                               ; preds = %22
  store i32 2, i32* %9, align 4
  br label %28

28:                                               ; preds = %59, %27
  %29 = load i32, i32* %9, align 4
  %30 = load i32, i32* %6, align 4
  %31 = icmp sle i32 %29, %30
  br i1 %31, label %32, label %62

32:                                               ; preds = %28
  store i32 2, i32* %8, align 4
  br label %33

33:                                               ; preds = %45, %32
  %34 = load i32, i32* %8, align 4
  %35 = load i32, i32* %9, align 4
  %36 = sub nsw i32 %35, 1
  %37 = icmp slt i32 %34, %36
  br i1 %37, label %38, label %48

38:                                               ; preds = %33
  %39 = load i32, i32* %9, align 4
  %40 = load i32, i32* %8, align 4
  %41 = srem i32 %39, %40
  %42 = icmp eq i32 %41, 0
  br i1 %42, label %43, label %44

43:                                               ; preds = %38
  br label %48

44:                                               ; preds = %38
  br label %45

45:                                               ; preds = %44
  %46 = load i32, i32* %8, align 4
  %47 = add nsw i32 %46, 1
  store i32 %47, i32* %8, align 4
  br label %33

48:                                               ; preds = %43, %33
  %49 = load i32, i32* %8, align 4
  %50 = load i32, i32* %9, align 4
  %51 = sub nsw i32 %50, 1
  %52 = icmp eq i32 %49, %51
  br i1 %52, label %53, label %58

53:                                               ; preds = %48
  %54 = load i32, i32* %9, align 4
  %55 = load i32, i32* %9, align 4
  %56 = sext i32 %55 to i64
  %57 = getelementptr inbounds [20000 x i32], [20000 x i32]* %7, i64 0, i64 %56
  store i32 %54, i32* %57, align 4
  br label %58

58:                                               ; preds = %53, %48
  br label %59

59:                                               ; preds = %58
  %60 = load i32, i32* %9, align 4
  %61 = add nsw i32 %60, 1
  store i32 %61, i32* %9, align 4
  br label %28

62:                                               ; preds = %28
  store i32 1, i32* %9, align 4
  br label %63

63:                                               ; preds = %93, %62
  %64 = load i32, i32* %9, align 4
  %65 = load i32, i32* %6, align 4
  %66 = sub nsw i32 %65, 1
  %67 = icmp slt i32 %64, %66
  br i1 %67, label %68, label %96

68:                                               ; preds = %63
  %69 = load i32, i32* %9, align 4
  %70 = sext i32 %69 to i64
  %71 = getelementptr inbounds [20000 x i32], [20000 x i32]* %7, i64 0, i64 %70
  %72 = load i32, i32* %71, align 4
  %73 = icmp ne i32 %72, 0
  br i1 %73, label %74, label %92

74:                                               ; preds = %68
  %75 = load i32, i32* %9, align 4
  %76 = add nsw i32 %75, 2
  %77 = sext i32 %76 to i64
  %78 = getelementptr inbounds [20000 x i32], [20000 x i32]* %7, i64 0, i64 %77
  %79 = load i32, i32* %78, align 4
  %80 = icmp ne i32 %79, 0
  br i1 %80, label %81, label %92

81:                                               ; preds = %74
  %82 = load i32, i32* %9, align 4
  %83 = sext i32 %82 to i64
  %84 = getelementptr inbounds [20000 x i32], [20000 x i32]* %7, i64 0, i64 %83
  %85 = load i32, i32* %84, align 4
  %86 = load i32, i32* %9, align 4
  %87 = add nsw i32 %86, 2
  %88 = sext i32 %87 to i64
  %89 = getelementptr inbounds [20000 x i32], [20000 x i32]* %7, i64 0, i64 %88
  %90 = load i32, i32* %89, align 4
  %91 = call i32 (i8*, ...) @printf(i8* getelementptr inbounds ([7 x i8], [7 x i8]* @.str.2, i64 0, i64 0), i32 %85, i32 %90)
  br label %92

92:                                               ; preds = %81, %74, %68
  br label %93

93:                                               ; preds = %92
  %94 = load i32, i32* %9, align 4
  %95 = add nsw i32 %94, 1
  store i32 %95, i32* %9, align 4
  br label %63

96:                                               ; preds = %63
  br label %97

97:                                               ; preds = %96, %25
  ret i32 0
}

declare dso_local i32 @__isoc99_scanf(i8*, ...) #1

declare dso_local i32 @printf(i8*, ...) #1


!llvm.module.flags = !{!0}
!llvm.ident = !{!1}

!0 = !{i32 1, !"wchar_size", i32 4}
!1 = !{!"clang version 10.0.0-4ubuntu1 "}
